(lp0
(lp1
(lp2
F0.99916952512339197
aF3.593755710379797
aF7.2065298926378674
aF3.9952238304662768
aF1.500040572723174
aF1.0014338931949833
aaa(lp3
(lp4
F0.99998387359364682
aF3.5955893242002617
aF7.1884002828803295
aF4.00423616717603
aF1.4964101135891508
aF1.0003467271915336
aaa(lp5
(lp6
F0.99958357541848353
aF3.603564332227299
aF7.2041695064639448
aF4.0030416136945748
aF1.5012656981827661
aF1.0005256755707466
aaa(lp7
(lp8
F0.99837442346606331
aF3.5989679858991011
aF7.1990085458970281
aF4.000650859103799
aF1.502014750498923
aF0.99989654354867785
aaa(lp9
(lp10
F1.000004597932115
aF3.5955601399620045
aF7.2047957669573588
aF3.9989263577158893
aF1.4994606981294341
aF1.0017231432516767
aaa(lp11
(lp12
F0.9985072672950247
aF3.6014380640888985
aF7.188602915026201
aF4.0074155701685674
aF1.5013211813086598
aF1.0015437475558979
aaa(lp13
(lp14
F1.0006752018872933
aF3.5943944497917224
aF7.1961704743235586
aF3.9971406264113374
aF1.4973749138192416
aF0.99902815276907175
aaa(lp15
(lp16
F1.0007584053024565
aF3.6001707743558966
aF7.1927945348653104
aF4.0024484128137887
aF1.5005488789552925
aF1.0012493445915731
aaa(lp17
(lp18
F1.0009585636175535
aF3.6046622601440634
aF7.1984948346335775
aF4.0027445478398942
aF1.5011295520927876
aF0.99904592110024182
aaa(lp19
(lp20
F0.99925941342281988
aF3.6041979079556494
aF7.1861777246391902
aF3.9990169328014766
aF1.4995037687124169
aF0.99886199284861754
aaa(lp21
(lp22
F0.99973236818965083
aF3.6037832379815908
aF7.2030770237706951
aF3.9982369846283503
aF1.4992297528641105
aF1.0004361754553814
aaa(lp23
(lp24
F0.99973850628997107
aF3.5972395174469813
aF7.2065317355567258
aF4.0018738857085143
aF1.4984061367348633
aF1.0009306331743857
aaa(lp25
(lp26
F1.0008869512937206
aF3.6014613782720266
aF7.199208960339659
aF4.0038324416566136
aF1.4992299515351011
aF0.99934123071194991
aaa(lp27
(lp28
F1.0007960443605648
aF3.5990357060782809
aF7.1997220680393159
aF4.0070855314456395
aF1.5017192093311815
aF0.99933969051326987
aaa(lp29
(lp30
F0.99983325254607536
aF3.5981677011151998
aF7.201995458545003
aF4.0033690095381402
aF1.5005861307681136
aF0.99908406764267477
aaa(lp31
(lp32
F1.0002174570319742
aF3.6031547603858156
aF7.2038923689285195
aF3.997112834437925
aF1.4957955618347354
aF1.0009391361521633
aaa(lp33
(lp34
F0.99985149182892408
aF3.6074823223403447
aF7.1962859558449459
aF3.9976389547057365
aF1.5021674469037893
aF0.99815678052744061
aaa(lp35
(lp36
F0.99941568109335521
aF3.6051977598881639
aF7.1948481545276444
aF3.9985816214999574
aF1.5009275386721037
aF0.99888474872453226
aaa(lp37
(lp38
F0.99823069545912513
aF3.6003347537612611
aF7.1944096199653789
aF3.9985428338569866
aF1.4993971400737873
aF1.0005171429129722
aaa(lp39
(lp40
F0.99949709300262546
aF3.5987658293515592
aF7.2034441607295072
aF4.0032995419800121
aF1.4996108387415288
aF1.0011063665553985
aaa(lp41
(lp42
F1.0002477105699541
aF3.602097576939963
aF7.2011996443717106
aF3.9994087939569076
aF1.4996138341023393
aF1.0010177366615547
aaa(lp43
(lp44
F1.0009340551990225
aF3.6022409947926417
aF7.198170979621052
aF4.0026226753374265
aF1.5023674097273836
aF1.0001910602524966
aaa(lp45
(lp46
F1.0007230250679782
aF3.6000997672438255
aF7.1929051784482603
aF4.0058755263582597
aF1.4998384004903524
aF1.0011002421582786
aaa(lp47
(lp48
F0.99974712074555594
aF3.6083210527669944
aF7.1983261955795932
aF3.9982353094071477
aF1.4986809897627817
aF1.0002490371327226
aaa(lp49
(lp50
F1.0003802230400149
aF3.5990886781494429
aF7.2105214989208113
aF4.00405280830942
aF1.501205187021472
aF1.0005734373726562
aaa(lp51
(lp52
F1.0000108148176254
aF3.5965451736871303
aF7.1869218376561017
aF4.0039468794953548
aF1.4984083768375265
aF1.0007334452149048
aaa(lp53
(lp54
F0.99985397360493466
aF3.6016514430069511
aF7.207551192757947
aF4.0028779064961464
aF1.5004226990172382
aF0.99843156666682653
aaa(lp55
(lp56
F0.99914833735272268
aF3.5968284727244542
aF7.210148669265064
aF4.0042830459154812
aF1.4995899396614301
aF0.99839843967102071
aaa(lp57
(lp58
F0.99798549943004633
aF3.5986269199430776
aF7.1930021641003794
aF4.0026716064049461
aF1.4973570426292599
aF1.0003467255134912
aaa(lp59
(lp60
F1.0001722270541473
aF3.5972055316134903
aF7.1971397151362089
aF4.0017822252474309
aF1.5039480156383951
aF1.001185264203553
aaa(lp61
(lp62
F0.9997304547954432
aF3.6006453916682659
aF7.2022578368528256
aF4.0029349801452812
aF1.4974974453148278
aF1.0007213857484556
aaa(lp63
(lp64
F1.0000605953674266
aF3.5992651795319786
aF7.1990759040411803
aF4.0042415295971381
aF1.4966494835099411
aF0.99929991328239487
aaa(lp65
(lp66
F1.0005648165453223
aF3.6008398032788533
aF7.2033158710992211
aF4.0065016496715744
aF1.5015632955019156
aF0.99989014158104861
aaa(lp67
(lp68
F1.0006780270237263
aF3.6037382562618823
aF7.2124645129181753
aF4.0050515500549775
aF1.4979680847124803
aF1.0006100984045603
aaa(lp69
(lp70
F0.99878755217964643
aF3.6015933059971195
aF7.2102164075374953
aF4.0044978605442711
aF1.503236583916127
aF0.99925776443380887
aaa(lp71
(lp72
F0.9998286033984487
aF3.5983264237682304
aF7.2014085026957995
aF3.9953737252513672
aF1.5017219474218615
aF0.99994971637407615
aaa(lp73
(lp74
F0.99955238789752443
aF3.6005653969600386
aF7.199638729846189
aF3.9974216101500906
aF1.5008544989083317
aF0.99960595514010708
aaa(lp75
(lp76
F0.99867398596643409
aF3.600730516951705
aF7.2079353667529373
aF3.9994733877292385
aF1.5018392337176796
aF1.0002772675073475
aaa(lp77
(lp78
F1.0025810141199729
aF3.600716849594237
aF7.2071587471314285
aF4.0028530463173855
aF1.4995984256749799
aF1.0013277759893482
aaa(lp79
(lp80
F1.0009557025337861
aF3.5935119740129031
aF7.1975355781815216
aF4.0017248144902045
aF1.5012580413263079
aF0.99887328725520452
aaa(lp81
(lp82
F0.99972204352648397
aF3.6042958175619093
aF7.216011953548306
aF4.0036126261115026
aF1.4980951859762424
aF0.99987333885740493
aaa(lp83
(lp84
F0.99958902162801222
aF3.6001240337013907
aF7.2001454008285641
aF4.008642160605187
aF1.5000075531269588
aF1.0000635106444278
aaa(lp85
(lp86
F0.99953622620076688
aF3.5984422602629036
aF7.1957157538371055
aF4.0005685734144913
aF1.4974173413318512
aF1.0005947836245288
aaa(lp87
(lp88
F0.99932262289801777
aF3.5987687304735561
aF7.2059136222589277
aF3.9960193482930593
aF1.4988799227636813
aF0.99850650014475473
aaa(lp89
(lp90
F1.0005911405536421
aF3.6058773927075429
aF7.1890553250681224
aF3.9969720931903416
aF1.5002914281854209
aF0.99995091814569659
aaa(lp91
(lp92
F0.99974349958665132
aF3.5978726075303809
aF7.2003314125038163
aF3.991300410494385
aF1.5009612890087936
aF1.0007892464122981
aaa(lp93
(lp94
F1.0002352193484123
aF3.6008423433823467
aF7.2029360915342817
aF3.9964148653455238
aF1.5015410365421884
aF1.0006714846007858
aaa(lp95
(lp96
F1.0012020026338833
aF3.6008977242053053
aF7.2030975043430656
aF4.0033271005499875
aF1.4989783852565959
aF1.0010499168243909
aaa(lp97
(lp98
F1.0002166186353976
aF3.6020811691009538
aF7.2068184295582309
aF3.9941539269462285
aF1.4990906394997743
aF1.0017803042314359
aaa(lp99
(lp100
F0.99956700694900169
aF3.5992104755453398
aF7.2005739602791898
aF3.9973791497760724
aF1.5020462057594994
aF1.0011107432369886
aaa(lp101
(lp102
F1.0005422873086467
aF3.5928215257149732
aF7.1958937810858403
aF4.0008645048869802
aF1.4978960118117552
aF0.999148203667237
aaa(lp103
(lp104
F1.000080289705134
aF3.6011005980571706
aF7.2057801796208709
aF3.9993798158334339
aF1.4989686474254547
aF1.0004767391764626
aaa(lp105
(lp106
F1.0011958338306028
aF3.5946037746876711
aF7.1994017007621007
aF4.0018681606496518
aF1.5001470526153771
aF0.99984219397669882
aaa(lp107
(lp108
F1.0022341370865608
aF3.5975132533803795
aF7.2071553583897554
aF3.9954204918378267
aF1.5012733087786061
aF1.0014838304095166
aaa(lp109
(lp110
F0.99965060634416625
aF3.594227792029542
aF7.1998975041175974
aF3.9977718385170062
aF1.5031044864163599
aF1.0008371464061996
aaa(lp111
(lp112
F0.99983631263546358
aF3.5966473496136202
aF7.1889025070596428
aF4.0007968632244184
aF1.501969831850402
aF0.99950447087039518
aaa(lp113
(lp114
F1.0010351421476551
aF3.6023120065180816
aF7.2092971696918724
aF3.9995054822377862
aF1.5026143989797798
aF1.0012275120484466
aaa(lp115
(lp116
F1.0001906754604994
aF3.5970568474210745
aF7.1973059558858461
aF3.9980326116720151
aF1.5033456394392781
aF1.0000896786194082
aaa(lp117
(lp118
F1.0003992237018868
aF3.5979225409640185
aF7.1991131845703098
aF3.9978805154405817
aF1.498845134878245
aF1.0012366540718458
aaa(lp119
(lp120
F0.99931074344585569
aF3.5983454575979801
aF7.1971755466594152
aF3.9999118367180793
aF1.5002883351249243
aF0.99933917848055775
aaa(lp121
(lp122
F1.0002700115626084
aF3.601143789085604
aF7.1985798979640316
aF3.9951051855830908
aF1.4987870100202931
aF1.0017393129569692
aaa(lp123
(lp124
F0.99913202428173442
aF3.6035573420774494
aF7.1920357313698853
aF3.9938734441829191
aF1.4994137298084638
aF0.9992709663702114
aaa(lp125
(lp126
F0.99948477728585572
aF3.6026591373563783
aF7.1968662225252427
aF4.0029404201336343
aF1.5003393472919033
aF1.0016211772802099
aaa(lp127
(lp128
F1.0013907209723476
aF3.5973881869860511
aF7.1962546510114738
aF3.9947556537816049
aF1.5000746930648445
aF1.0016037127568802
aaa(lp129
(lp130
F0.99765291075512863
aF3.5983663897918388
aF7.196985691435259
aF4.0058727009127741
aF1.5003702827695824
aF1.0003702441524378
aaa(lp131
(lp132
F1.0000470622400504
aF3.5973462070204287
aF7.2037087910132662
aF3.9992576065599725
aF1.5007353885961765
aF0.9990702463829082
aaa(lp133
(lp134
F0.99901418450207835
aF3.6018926389020121
aF7.2056151770168162
aF4.0054874637043412
aF1.4969893881959513
aF0.99955371058925613
aaa(lp135
(lp136
F0.99963273415503973
aF3.6038041262982055
aF7.2002766511528984
aF3.9964893570241657
aF1.4981275627289938
aF1.0024487344558204
aaa(lp137
(lp138
F0.99812019082349224
aF3.6032249413807174
aF7.2093186965791691
aF4.002436400744033
aF1.5019137627544241
aF0.99967644131701738
aaa(lp139
(lp140
F1.0018744308210121
aF3.6015481670080267
aF7.1929371951674481
aF4.0012876190583615
aF1.5013290052358315
aF1.0005157006409349
aaa(lp141
(lp142
F1.000036716641219
aF3.5978796748548221
aF7.197752591576454
aF3.996148840043765
aF1.4979586368708913
aF0.99940879015215389
aaa(lp143
(lp144
F0.99957279621000772
aF3.6013012445673414
aF7.1983192209879263
aF4.0013950671578504
aF1.5010800409998537
aF0.99921768437353375
aaa(lp145
(lp146
F1.0010007199939805
aF3.607608530094196
aF7.2002684629876095
aF3.9997487775597342
aF1.4991969986879445
aF1.0007515064207311
aaa(lp147
(lp148
F1.0015094220402001
aF3.6072547744991112
aF7.1916663660312512
aF3.9978045927226291
aF1.5007712848595891
aF0.99984704082978948
aaa(lp149
(lp150
F0.99897523939156174
aF3.6003190437294408
aF7.1909064841083081
aF4.0032226106424371
aF1.5004422153081227
aF0.99984286708762504
aaa(lp151
(lp152
F1.0009297800055184
aF3.5959950259650904
aF7.1971951825911509
aF3.9942181889597244
aF1.4980710215308912
aF0.99897451999740494
aaa(lp153
(lp154
F1.0002438239336437
aF3.6011430659896231
aF7.2023633855967795
aF4.0008920392697664
aF1.5001068772745592
aF1.0011279534202628
aaa(lp155
(lp156
F1.0001389252957327
aF3.6004464456986147
aF7.2067280543905188
aF4.0029905493605638
aF1.4996884222241429
aF0.99929281014098759
aaa(lp157
(lp158
F1.0008489478939879
aF3.595196793645421
aF7.1993814573791273
aF4.0005591820563984
aF1.4984338992235833
aF1.0002180294046439
aaa(lp159
(lp160
F0.9990993725282481
aF3.5998030280501929
aF7.1974298920096125
aF3.9958286059702615
aF1.5011110889361288
aF0.99839869249785762
aaa(lp161
(lp162
F1.0003642294244344
aF3.5985885596541802
aF7.2095193770871271
aF3.9894386622716071
aF1.495981168158983
aF1.0001325119749458
aaa(lp163
(lp164
F1.0011603238269844
aF3.6002028291025403
aF7.1876365636882547
aF3.9972315870637329
aF1.4979540395095232
aF1.0017109956553616
aaa(lp165
(lp166
F1.0001030637122688
aF3.5986022190786895
aF7.1910514280343163
aF3.9986011195237219
aF1.5022006902913412
aF0.99960627986860684
aaa(lp167
(lp168
F1.001583864015074
aF3.6046359453754531
aF7.2104304755553725
aF4.0066701529561506
aF1.4989748078934961
aF0.99766903231397708
aaa(lp169
(lp170
F0.99916508874449705
aF3.5989405478605447
aF7.1984786902988889
aF4.0014980295453073
aF1.5013659096204355
aF0.99928948436152165
aaa(lp171
(lp172
F1.0016391019643238
aF3.598448482198886
aF7.1945913866832756
aF4.0002911396530862
aF1.5023773340833364
aF1.001930895931302
aaa(lp173
(lp174
F1.0000699967492119
aF3.6011284994507071
aF7.1958778219843724
aF4.0000533492536112
aF1.4990972867135597
aF1.0008935960048535
aaa(lp175
(lp176
F0.99863682258337616
aF3.5996152682219287
aF7.2071979038855947
aF3.9954671218643125
aF1.5000169346913275
aF1.0002914104456071
aaa(lp177
(lp178
F0.99998851333059446
aF3.6028785413089439
aF7.207525309456619
aF4.0063550579836527
aF1.4993486627654227
aF0.99930217157555146
aaa(lp179
(lp180
F0.99839489650922619
aF3.595307143583514
aF7.1804556476434671
aF4.001425320372042
aF1.4995560815799385
aF0.99990560870062462
aaa(lp181
(lp182
F1.0012267950609524
aF3.6049694609661378
aF7.1922251361058702
aF3.9981481523146858
aF1.4999038182367499
aF1.0005545211052245
aaa(lp183
(lp184
F0.99896159773414617
aF3.5967546719141619
aF7.2025292199681861
aF3.9942647970937206
aF1.5011842493256637
aF1.0011480547745117
aaa(lp185
(lp186
F0.99812529443082176
aF3.5998825016828393
aF7.2007288412230634
aF3.9955753868943678
aF1.4991990550391829
aF1.0018498343002684
aaa(lp187
(lp188
F1.000103336866053
aF3.5937857232262749
aF7.1938123951930164
aF4.0014381984358875
aF1.5014275835427342
aF0.9997576340971509
aaa(lp189
(lp190
F0.99872704280481428
aF3.5925401643570649
aF7.2068042008618587
aF3.9979810499151451
aF1.4992886492182909
aF1.0003152497716026
aaa(lp191
(lp192
F1.0018863337431159
aF3.6010020277165919
aF7.207193678137612
aF4.0055404936895149
aF1.500806878761531
aF0.99956828326255631
aaa(lp193
(lp194
F0.99895222231611769
aF3.5991696195427512
aF7.202751323583815
aF3.9933222817094665
aF1.4999410990097033
aF1.0005470682114259
aaa(lp195
(lp196
F0.99753399452522251
aF3.5995740847076068
aF7.2004139557642191
aF4.0011781883809805
aF1.4999829822394968
aF1.0002764006151916
aaa(lp197
(lp198
F0.99907940926501104
aF3.5973392541508171
aF7.1957073144909183
aF3.9945542384038935
aF1.4966559966969073
aF0.99951814857211951
aaa(lp199
(lp200
F0.99924455418552682
aF3.6008991601457669
aF7.1956528626790979
aF4.0031226615833848
aF1.4998487712678075
aF1.0005190660805823
aaa(lp201
(lp202
F1.001930727037581
aF3.6013156768766459
aF7.205483498891545
aF3.9990838490365088
aF1.5010524126268128
aF1.0006619845856608
aaa(lp203
(lp204
F1.0003266810219951
aF3.6025392459954624
aF7.1925837557396655
aF4.001507459785139
aF1.5013931766536481
aF1.0000795101039257
aaa(lp205
(lp206
F1.0015242613056685
aF3.6023659662516621
aF7.2026785283260342
aF4.0026489578943272
aF1.499076175107144
aF1.0010148915444601
aaa(lp207
(lp208
F0.99858644146226405
aF3.5972882415075405
aF7.1970406309330963
aF4.0044652533320262
aF1.4967479923502498
aF0.99925942850829097
aaa(lp209
(lp210
F1.0012402442502162
aF3.6056712191421072
aF7.1972435406656423
aF3.9994915460628766
aF1.4998118173524027
aF0.99925284060643427
aaa(lp211
(lp212
F0.9995504600079631
aF3.5983237786401205
aF7.191166924184313
aF4.0034569247393197
aF1.4998242997310549
aF1.0009029690873892
aaa(lp213
(lp214
F1.0018794032916667
aF3.6007171183926814
aF7.1961017785009247
aF4.0006649984359948
aF1.5012546069910995
aF0.99854754030862591
aaa(lp215
(lp216
F0.99791727787311801
aF3.5970050265383793
aF7.1867107718161227
aF4.001257663286693
aF1.5000956390463578
aF0.99972020581738064
aaa(lp217
(lp218
F1.0018790884447715
aF3.5975922322024654
aF7.202271069408881
aF3.9993866494438866
aF1.5028518449925914
aF1.0015179631712776
aaa(lp219
(lp220
F0.99981068462887634
aF3.6033254457924282
aF7.2018431489618706
aF4.0027070994474689
aF1.4994723875738813
aF1.0003267542266168
aaa(lp221
(lp222
F0.99899263905735813
aF3.5991786600822278
aF7.2089083653235946
aF4.0028439719699334
aF1.5003199822751556
aF0.99865940270941833
aaa(lp223
(lp224
F0.99978604395436677
aF3.5972918105255238
aF7.2051601900174918
aF4.0031079845361548
aF1.4982124968926045
aF1.000466925697745
aaa(lp225
(lp226
F1.0012024906584904
aF3.6042701003638542
aF7.2046647558045214
aF3.9973036835291005
aF1.501940029003807
aF1.0002558570567368
aaa(lp227
(lp228
F1.0009159259060125
aF3.6060773127391039
aF7.1940187596361485
aF3.9969792633157133
aF1.5009463437451054
aF1.0006748737579663
aaa(lp229
(lp230
F1.000188143295285
aF3.5965597987104929
aF7.1987173842125074
aF4.0017934357157579
aF1.5032512215340554
aF0.99890373337462768
aaa(lp231
(lp232
F1.0005724651535874
aF3.6015973428558179
aF7.2088829216024815
aF4.0040847939726021
aF1.4992014267570999
aF0.99957250738046388
aaa(lp233
(lp234
F0.99760102098018966
aF3.5999313873568948
aF7.1957523885052881
aF4.0029539055513883
aF1.4998299602360661
aF1.0026800710338959
aaa(lp235
(lp236
F1.0002557756872605
aF3.6066434218388395
aF7.1905962266814205
aF3.9989702227110397
aF1.498869756517605
aF1.0003479191527678
aaa(lp237
(lp238
F0.99970871480342316
aF3.5959323348930203
aF7.2070137727225516
aF4.0047593611524155
aF1.4999668766568506
aF1.0000499676524259
aaa(lp239
(lp240
F1.0016406147113197
aF3.6043372721948175
aF7.215608829097043
aF3.9936846409619338
aF1.5004350721343518
aF1.0003923082969359
aaa(lp241
(lp242
F0.99977925340108087
aF3.5975929696375255
aF7.199204614391622
aF4.0018369483847716
aF1.4991884657806265
aF0.99852255554481906
aaa(lp243
(lp244
F1.0005384762310201
aF3.6000625496052967
aF7.1856362542277639
aF4.0044823361972428
aF1.4997558204933152
aF1.0001223794434944
aaa(lp245
(lp246
F0.99993606878804531
aF3.5977028574565351
aF7.1975165332974953
aF4.0039692647249359
aF1.4991867040439044
aF0.99872071964115461
aaa(lp247
(lp248
F0.99909197201647282
aF3.598105325652591
aF7.1989413537978386
aF3.9964296528375782
aF1.5014411626796542
aF1.0008020877388049
aaa(lp249
(lp250
F0.99991646022622038
aF3.6036860352288484
aF7.1946778045443427
aF4.0043936937585451
aF1.5014309875591318
aF0.99992839965751323
aaa(lp251
(lp252
F0.99912690798049208
aF3.5989722426806061
aF7.1919697459011376
aF4.0042689249256176
aF1.5003346284842767
aF1.0013819257853902
aaa(lp253
(lp254
F1.0016376815738071
aF3.5978489983303801
aF7.198848611682096
aF4.0009385087627418
aF1.5004663245793406
aF1.0026207822001714
aaa(lp255
(lp256
F0.99979499584324016
aF3.6035655909023663
aF7.1981166655725071
aF3.9908638183153906
aF1.499760090547555
aF1.0007108112059624
aaa(lp257
(lp258
F1.0004688071975323
aF3.6033393341683846
aF7.1859532112982301
aF3.9963256072380378
aF1.5008037045370199
aF0.9988267977132762
aaa(lp259
(lp260
F1.0004721557442118
aF3.6034683218427195
aF7.1979216471828353
aF3.9931510887372932
aF1.5005070193796428
aF1.0010512158459082
aaa(lp261
(lp262
F0.9991188400935439
aF3.6020078324945155
aF7.1948789412197582
aF4.0005852319958892
aF1.499724430976809
aF0.99841231790572171
aaa(lp263
(lp264
F0.99981204420028791
aF3.5945958938586222
aF7.1843383973672577
aF3.9897197065784593
aF1.4992433869539457
aF0.99970170435061601
aaa(lp265
(lp266
F1.0003683588669754
aF3.6013874010147475
aF7.2061850084531862
aF3.9996193660551884
aF1.5026643997771414
aF1.0000196790634093
aaa(lp267
(lp268
F1.0005218106865226
aF3.5976158934672497
aF7.1829938155564994
aF3.9941198821795951
aF1.5001695442910015
aF1.0007763602810975
aaa(lp269
(lp270
F1.0002381669316667
aF3.6034380725967021
aF7.201693301183842
aF3.9968113685594
aF1.4990605989399335
aF1.0001328488244117
aaa(lp271
(lp272
F0.99745185410909121
aF3.6006913874227031
aF7.2031811728668922
aF3.9942972750887145
aF1.5009245926429302
aF1.0001507284664863
aaa(lp273
(lp274
F1.0004150623573458
aF3.598129992329191
aF7.2055198715508126
aF3.9985395213090458
aF1.5000364045873884
aF1.0002696561199556
aaa(lp275
(lp276
F1.0002000667860429
aF3.6053212269705397
aF7.2050181384966043
aF3.9935132238834381
aF1.4976030662656696
aF0.99938798170899068
aaa(lp277
(lp278
F1.0001460558748883
aF3.5932229042604562
aF7.1942323157882022
aF4.0030690913825238
aF1.4998178476637283
aF0.99967747088693215
aaa(lp279
(lp280
F1.0019198820858486
aF3.6022068619003811
aF7.2074183536326561
aF3.9955539908224829
aF1.4996382263024808
aF0.99967978425530124
aaa(lp281
(lp282
F1.001090587808827
aF3.598640221374239
aF7.2013196704872255
aF4.0004228456789894
aF1.4992313709431104
aF1.000909902322475
aaa(lp283
(lp284
F1.0010344993600013
aF3.6050815065526298
aF7.1964386272846665
aF4.0067799351654214
aF1.4990589314062914
aF0.99896349138525053
aaa(lp285
(lp286
F1.0003632951131256
aF3.5998028445243371
aF7.2056032493528415
aF4.0043092311720185
aF1.4984572876413549
aF0.99994207714172956
aaa(lp287
(lp288
F1.0007729725324217
aF3.6010594652534067
aF7.1916731199853103
aF3.9981983412768707
aF1.4983601826791935
aF1.0002277837078761
aaa(lp289
(lp290
F1.0004037319563579
aF3.5948833178867656
aF7.2077479098947235
aF4.0036730264863829
aF1.5001426985832651
aF0.99904636346209685
aaa(lp291
(lp292
F1.001539668970552
aF3.5972620353011657
aF7.2059722945840692
aF3.9943332055868046
aF1.5011304213260435
aF1.0013567310377316
aaa(lp293
(lp294
F1.0002480744318221
aF3.5934164414300414
aF7.2117511280402447
aF4.0012581902326145
aF1.4991178829515674
aF1.0006246098817282
aaa(lp295
(lp296
F1.0015587349114219
aF3.5974717806132825
aF7.1963650844885674
aF3.9933967214044466
aF1.5016144661822659
aF0.9977638518388422
aaa(lp297
(lp298
F0.99995576169545641
aF3.6009491782553802
aF7.1913756517365277
aF4.0020717788493432
aF1.5006565198193436
aF1.0011065864285
aaa(lp299
(lp300
F1.000738495195286
aF3.5971690112741759
aF7.2024601153148469
aF4.0003840954109959
aF1.5001080239501099
aF1.000157101422817
aaa(lp301
(lp302
F1.000675544964523
aF3.6054721761972752
aF7.2174783465871002
aF4.0129281743799918
aF1.5031837859777575
aF1.0020552596511219
aaa(lp303
(lp304
F1.0020133186647742
aF3.5990959431643201
aF7.2008566613897589
aF4.0020329670023109
aF1.4975816066566323
aF1.0002115517290304
aaa(lp305
(lp306
F1.0000862829892829
aF3.6039481530169906
aF7.1984028887793849
aF4.0042097667818037
aF1.501081460290532
aF1.0009511974124721
aaa(lp307
(lp308
F0.99994399301021053
aF3.5929013190392585
aF7.1943346373840145
aF4.0104841978206593
aF1.4998360922307321
aF0.99952149609056851
aaa(lp309
(lp310
F1.0002719126029787
aF3.5977061236147652
aF7.1978533468799011
aF4.0050780640979635
aF1.4982177719509597
aF1.0002285934677992
aaa(lp311
(lp312
F0.99983657089488531
aF3.6017404537804927
aF7.2010798343689162
aF3.9999472857522433
aF1.5018689884911258
aF0.99910804538563769
aaa(lp313
(lp314
F0.99976621135756782
aF3.5952866405991979
aF7.1981586977799852
aF4.0020138565918986
aF1.4997318873394876
aF1.000812018470258
aaa(lp315
(lp316
F1.0004288801360646
aF3.6012768610211379
aF7.1964751015228172
aF4.0034845160603192
aF1.4982308566905067
aF1.0015053439613253
aaa(lp317
(lp318
F1.0013252367667507
aF3.5989856146556796
aF7.1995742865390469
aF4.0037559916290473
aF1.4986858189771439
aF1.0003915728666661
aaa(lp319
(lp320
F0.99932897345688687
aF3.6102925833413364
aF7.1922290383788692
aF3.9948467428954162
aF1.4978058295870089
aF0.99896202222570873
aaa(lp321
(lp322
F0.9996484587558675
aF3.6015648673428697
aF7.2092974444720088
aF4.0071172318019697
aF1.5024501782511075
aF1.0000185347569022
aaa(lp323
(lp324
F0.99932869727733342
aF3.6010963281603323
aF7.2107374304800462
aF4.0014346061185231
aF1.5003101362987667
aF0.99998592660848296
aaa(lp325
(lp326
F0.99942537083693006
aF3.6032921060248611
aF7.2015172494305881
aF4.0016828025734021
aF1.499156929894351
aF1.0014589919127856
aaa(lp327
(lp328
F1.0001381152919639
aF3.5982620877801534
aF7.211223205299528
aF4.0047269188006647
aF1.4980464242917282
aF0.99906645340786593
aaa(lp329
(lp330
F0.99917577664865143
aF3.597404043858035
aF7.1951331337957765
aF3.9995127752010253
aF1.4985738537421782
aF1.0008682996745182
aaa(lp331
(lp332
F0.99983098111785917
aF3.6013065162117313
aF7.2023667392080659
aF4.002432872158221
aF1.5008284040238189
aF0.99989769567374176
aaa(lp333
(lp334
F0.999651110381235
aF3.5953394201729671
aF7.1864996071509797
aF4.0010158859753053
aF1.5011827621330573
aF0.99981362114650263
aaa(lp335
(lp336
F1.0005755894365682
aF3.5941643264990302
aF7.1995102350884048
aF4.0030920862136199
aF1.5012803242465371
aF1.0023916002196911
aaa(lp337
(lp338
F1.0010753785638666
aF3.598080324614112
aF7.2028513527724627
aF3.9991932869735605
aF1.4980189698071462
aF1.0017791678385453
aaa(lp339
(lp340
F1.0004338762066205
aF3.5977272878004873
aF7.1872331495949684
aF3.996969978823099
aF1.5006028877713655
aF0.99871642314152698
aaa(lp341
(lp342
F1.0003550439178339
aF3.6039349564339478
aF7.2009914725994273
aF3.9956764027335367
aF1.5013467408049728
aF1.0006224574717573
aaa(lp343
(lp344
F1.001031460860625
aF3.599673782822399
aF7.1991109140976688
aF3.9996746023435565
aF1.4997151804962887
aF0.99802118881548452
aaa(lp345
(lp346
F0.99956238755065319
aF3.6043514610576728
aF7.1957629325533938
aF4.0031156295708934
aF1.5003896576803588
aF0.99969736340189974
aaa(lp347
(lp348
F0.99945976031988448
aF3.5948790390903644
aF7.2014869732984783
aF4.0021542120625027
aF1.4997449108899601
aF0.99898996190557687
aaa(lp349
(lp350
F0.99956772185689202
aF3.6001427204067897
aF7.2056273487393208
aF3.9971756978498099
aF1.5030885984656013
aF0.99987600776876351
aaa(lp351
(lp352
F0.99915438191090533
aF3.6040753007484394
aF7.1951759031656639
aF3.9982778423980081
aF1.502141907085518
aF1.0009524006651274
aaa(lp353
(lp354
F0.99952557967575528
aF3.603598000972422
aF7.2053486330654399
aF4.0013280117580585
aF1.4998460744892455
aF1.0019717229992635
aaa(lp355
(lp356
F0.99943236534961388
aF3.5935941693201334
aF7.1975478981861549
aF4.0023522917456624
aF1.5013333212430624
aF0.99720764055139555
aaa(lp357
(lp358
F1.0000056749419852
aF3.5975566133966517
aF7.2077748111632722
aF4.006042468784865
aF1.5010147347394531
aF1.0004568501645998
aaa(lp359
(lp360
F0.99933744111756928
aF3.6047291803742842
aF7.2020318457532033
aF4.0000292689904429
aF1.5011869215783065
aF1.0000271302318402
aaa(lp361
(lp362
F0.99730366718718477
aF3.6024051794626901
aF7.1981083034263591
aF4.0045005962235587
aF1.4973460069153943
aF1.0006629728969556
aaa(lp363
(lp364
F0.99992450199587635
aF3.5967109527698016
aF7.2075125085340446
aF3.9979459956693009
aF1.4984416389025397
aF1.0005381597217211
aaa(lp365
(lp366
F1.000561257858452
aF3.6019116507139843
aF7.2006165330232754
aF3.9964371988109213
aF1.5002558976569704
aF0.99925694013463062
aaa(lp367
(lp368
F0.99865633144093124
aF3.5997303463279082
aF7.1953971945169206
aF4.0054622755053293
aF1.4970833140251798
aF0.99956871471439845
aaa(lp369
(lp370
F1.0004447251610871
aF3.6034373094101464
aF7.1972489825233126
aF4.0038311984229038
aF1.4981693595906163
aF1.0007051606604587
aaa(lp371
(lp372
F0.99856002195132287
aF3.6027429100902548
aF7.2024194259381238
aF3.9896436026142292
aF1.5022348584645979
aF0.99988084360413654
aaa(lp373
(lp374
F0.99839145197313783
aF3.6008465140720869
aF7.2004740328211341
aF4.0004254485515869
aF1.4986783038488269
aF0.99936691721537252
aaa(lp375
(lp376
F0.99951760321295158
aF3.5992380474670811
aF7.1981356151087814
aF4.0032088764858695
aF1.4990247050510908
aF1.0011583227614351
aaa(lp377
(lp378
F1.0004233453453759
aF3.5996500325605258
aF7.2013432398011137
aF3.9930672354547005
aF1.5018590486845009
aF0.99952589310266771
aaa(lp379
(lp380
F1.0000799313067816
aF3.5978459710700563
aF7.1998442499955724
aF3.9997855014525987
aF1.5010178544681245
aF0.99937735755110968
aaa(lp381
(lp382
F1.0006226009522734
aF3.6041101987637729
aF7.2096610604706344
aF4.0004692566042808
aF1.5006608407850439
aF1.0007354241059419
aaa(lp383
(lp384
F0.99960941316768526
aF3.5908311065354384
aF7.1910736409451532
aF4.0074180112598663
aF1.4988252211473396
aF0.99934848577796453
aaa(lp385
(lp386
F1.0011567628614986
aF3.5935891368699577
aF7.2055169917946733
aF4.0054939362374826
aF1.5017129187468594
aF1.0008124347696241
aaa(lp387
(lp388
F0.99967244286678936
aF3.5948126400771478
aF7.1988570697106651
aF3.9958512729386522
aF1.4997705923605573
aF0.99953783280123099
aaa(lp389
(lp390
F1.0001596461858067
aF3.6004257386243586
aF7.1922399630354255
aF3.9995312400033414
aF1.497724788744826
aF1.0020574879801534
aaa(lp391
(lp392
F1.0015006473027142
aF3.6006080680068631
aF7.1973313461243045
aF3.9995203850827612
aF1.4974590276989705
aF1.0009702009744079
aaa(lp393
(lp394
F0.99855891099353444
aF3.6006992458457838
aF7.2079604077444062
aF3.9965498273053734
aF1.500663064009419
aF0.9991094686086619
aaa(lp395
(lp396
F1.0004168261800657
aF3.5991100955319015
aF7.1996021417508107
aF4.0009614690993729
aF1.4984136337937317
aF0.9992614568345517
aaa(lp397
(lp398
F0.99818555681844068
aF3.5978094297322296
aF7.1988766748087594
aF3.9985341312762595
aF1.4995911007937295
aF1.0009803331049845
aaa(lp399
(lp400
F1.0000338920533689
aF3.6023986027391164
aF7.2128423591437612
aF3.9997774545692693
aF1.4984959692863289
aF1.0006919595003689
aaa.